Certificate:
    Data:
        Version: 3 (0x2)
        Serial Number: 0 (0x0)
        Signature Algorithm: sha1WithRSAEncryption
        Issuer: C=ES, ST=Madrid, O=Jazztel S.A.U., CN=Provisioning CA
        Validity
            Not Before: Dec 19 16:53:00 2012 GMT
            Not After : Dec 17 16:53:00 2022 GMT
        Subject: C=ES, ST=Madrid, O=Jazztel S.A.U., CN=Provisioning CA
        Subject Public Key Info:
            Public Key Algorithm: rsaEncryption
            RSA Public Key: (4096 bit)
                Modulus (4096 bit):
                    00:9f:41:a4:0a:a9:b4:93:dc:de:64:bb:10:b5:83:
                    09:a4:33:d0:24:33:a9:b0:6c:0b:df:70:f0:25:8f:
                    e8:5f:96:7d:21:7e:43:66:b8:74:1d:1f:bd:38:1c:
                    d8:46:20:29:20:16:a1:f7:bb:f6:60:fc:b0:c7:08:
                    fb:5a:7f:f4:a6:8d:80:a4:72:4f:4e:15:2c:4a:68:
                    ec:dc:12:9e:7f:4d:32:19:cc:f9:d4:67:ca:be:25:
                    13:68:0f:89:33:b8:12:94:fb:8b:5c:b3:2d:11:ab:
                    52:94:00:c5:dd:84:92:22:d6:d0:7f:67:64:be:bc:
                    0f:1e:c9:60:df:33:6b:41:75:ae:83:33:7b:4b:ac:
                    33:5f:52:0b:6f:7b:b6:99:e7:0d:2e:f1:42:43:e6:
                    76:cd:59:8a:7c:91:99:4e:09:ce:bc:5c:50:98:da:
                    a5:19:16:e3:1b:7e:39:ec:3c:94:4c:77:43:9f:dd:
                    b5:85:fa:f6:ed:6f:f7:92:13:f9:3e:95:e9:ca:bf:
                    61:20:ed:c7:03:8f:6c:91:3c:b3:de:8e:63:bb:02:
                    d2:f1:d8:ce:f6:4c:3c:f7:fe:94:17:f8:c9:1c:b0:
                    bf:a1:f7:3d:f6:98:e9:65:3c:26:df:d1:6e:26:b5:
                    d8:7e:6d:82:e7:60:76:77:c1:a0:16:05:05:5d:6e:
                    1b:e5:d8:cd:69:74:9c:c4:7f:ef:c1:e2:ae:f0:b6:
                    2d:5e:73:b6:0f:64:75:1c:00:d9:57:39:3f:0e:aa:
                    d5:e5:a3:31:51:e8:97:e5:21:a9:75:76:97:e4:41:
                    fe:0f:1f:52:90:67:9d:b2:ef:03:a8:de:9a:4b:9e:
                    19:98:b7:12:ff:7a:b9:2f:18:a8:3e:f6:02:56:c0:
                    2d:6d:1b:c8:2c:23:68:5b:23:21:af:f2:b2:2a:0e:
                    af:af:45:09:54:0e:83:f3:a1:ca:9c:9a:c4:3a:68:
                    ad:8b:c5:3d:11:b7:cb:c8:f0:c9:3e:7e:27:ae:fe:
                    0b:85:39:e0:15:f3:a0:86:c2:6c:7a:b9:ea:fd:e4:
                    3f:b6:54:a2:39:40:9a:c0:e3:b5:b7:8f:6d:46:f3:
                    d2:a8:e7:8a:2b:df:3c:88:fb:1c:69:86:53:fd:b7:
                    a6:0d:2e:c7:78:ba:73:bc:cb:97:ef:42:c9:1c:d5:
                    40:9f:f1:2e:ec:eb:8d:d3:30:1a:9a:25:36:9a:ef:
                    87:e5:75:a7:2e:6b:05:e0:39:38:04:79:94:33:71:
                    25:52:92:ae:30:46:8f:a0:d3:bc:b9:46:6a:72:41:
                    83:e1:e7:7c:16:e6:01:0e:58:08:67:f7:02:79:ec:
                    b6:de:27:49:a9:5e:3d:5c:1b:ec:4f:5d:ff:c4:69:
                    e6:85:9b
                Exponent: 65537 (0x10001)
        X509v3 extensions:
            X509v3 Subject Key Identifier: 
                56:28:20:B8:48:DA:72:49:DE:9E:99:B5:BA:B7:6D:08:82:9D:C6:CA
            X509v3 Authority Key Identifier: 
                keyid:56:28:20:B8:48:DA:72:49:DE:9E:99:B5:BA:B7:6D:08:82:9D:C6:CA
                DirName:/C=ES/ST=Madrid/O=Jazztel S.A.U./CN=Provisioning CA
                serial:00

            X509v3 Basic Constraints: critical
                CA:TRUE
            X509v3 Key Usage: 
                Certificate Sign, CRL Sign
    Signature Algorithm: sha1WithRSAEncryption
        77:fe:8d:aa:84:35:9f:16:8f:74:2f:8f:f9:98:a6:5c:c8:8e:
        ea:79:d3:7c:72:b7:6e:98:e3:d6:57:2a:75:b2:13:71:25:2f:
        22:bb:30:17:7f:86:62:e4:29:0f:b6:d8:59:b4:8c:0a:1d:59:
        e0:94:d3:04:88:3a:6a:da:75:45:d6:45:ab:41:35:bc:0e:44:
        ff:6d:0d:b9:22:55:94:27:0d:0d:51:8a:81:9a:91:4b:ef:8d:
        11:a4:f6:d7:26:75:b1:67:d3:2c:6b:f2:ab:6a:20:c3:56:2a:
        82:d4:b8:e2:b8:de:75:6d:14:53:6c:82:44:c3:0a:72:e4:02:
        3c:99:f2:44:8d:11:12:eb:1d:a1:9a:23:9c:96:d5:9e:73:2a:
        3d:2d:61:65:41:ec:ea:03:64:aa:d4:b0:b9:73:ec:4a:8c:cf:
        26:74:62:c1:a9:ea:5e:3f:c0:df:8b:28:9c:a6:9d:1f:0f:6a:
        37:8c:e8:b8:1c:4e:2e:66:07:4f:05:07:a2:79:25:4e:2e:ab:
        4b:b2:e3:ca:e5:3b:cb:54:ab:75:be:b8:ae:ee:e8:f6:b5:19:
        68:44:4e:ac:c2:c6:22:76:40:b3:7e:64:ab:f2:12:e8:d9:61:
        a8:70:9a:5b:69:7a:f9:c7:75:ff:19:f2:b3:00:bc:7d:11:e7:
        83:e1:02:04:8d:fd:03:90:13:4c:bb:85:9e:c8:dc:f3:dd:7a:
        6b:e4:c3:fd:f1:1f:89:b1:38:ac:48:90:d6:be:9d:c8:8a:b1:
        42:4d:fe:09:3d:8d:d1:da:9b:73:51:3c:1d:6c:97:07:34:4a:
        fe:ac:3f:bd:0e:da:68:71:1e:fb:93:c4:9a:0f:ba:6a:b5:d5:
        c9:7b:23:a9:20:a8:44:fb:c9:e1:b2:42:6d:c4:b1:52:01:a1:
        fb:b1:6f:27:62:9f:48:99:0c:8a:19:ba:67:9c:75:e8:5e:a6:
        00:61:b5:f6:c0:f5:81:63:c2:9c:2d:94:cb:1c:a7:6e:54:72:
        64:bf:e0:05:98:bf:7b:60:7e:ec:36:8a:ff:d7:85:e6:d6:6a:
        65:10:9f:7d:0d:51:b7:e2:a7:34:c8:00:7e:f3:2e:eb:84:15:
        aa:74:1f:08:21:1b:3d:9f:8c:d4:98:e5:f4:b6:e4:65:e0:6e:
        d6:ba:80:9f:b6:cd:d6:80:ec:7c:0c:21:32:60:84:e3:81:b2:
        64:48:57:2a:36:02:1a:d8:8d:0b:43:e0:4b:56:99:45:f4:2f:
        22:8f:e5:71:fe:7c:57:f4:95:a1:24:ee:1d:1c:48:95:16:c4:
        cd:7c:16:0f:96:ca:6b:1b:a1:82:1a:80:bc:04:2c:84:3f:f7:
        51:8f:ed:5c:0b:a0:9d:9f
-----BEGIN CERTIFICATE-----
MIIF2TCCA8GgAwIBAgIBADANBgkqhkiG9w0BAQUFADBRMQswCQYDVQQGEwJFUzEP
MA0GA1UECBMGTWFkcmlkMRcwFQYDVQQKEw5KYXp6dGVsIFMuQS5VLjEYMBYGA1UE
AxMPUHJvdmlzaW9uaW5nIENBMB4XDTEyMTIxOTE2NTMwMFoXDTIyMTIxNzE2NTMw
MFowUTELMAkGA1UEBhMCRVMxDzANBgNVBAgTBk1hZHJpZDEXMBUGA1UEChMOSmF6
enRlbCBTLkEuVS4xGDAWBgNVBAMTD1Byb3Zpc2lvbmluZyBDQTCCAiIwDQYJKoZI
hvcNAQEBBQADggIPADCCAgoCggIBAJ9BpAqptJPc3mS7ELWDCaQz0CQzqbBsC99w
8CWP6F+WfSF+Q2a4dB0fvTgc2EYgKSAWofe79mD8sMcI+1p/9KaNgKRyT04VLEpo
7NwSnn9NMhnM+dRnyr4lE2gPiTO4EpT7i1yzLRGrUpQAxd2EkiLW0H9nZL68Dx7J
YN8za0F1roMze0usM19SC297tpnnDS7xQkPmds1ZinyRmU4JzrxcUJjapRkW4xt+
Oew8lEx3Q5/dtYX69u1v95IT+T6V6cq/YSDtxwOPbJE8s96OY7sC0vHYzvZMPPf+
lBf4yRywv6H3PfaY6WU8Jt/Rbia12H5tgudgdnfBoBYFBV1uG+XYzWl0nMR/78Hi
rvC2LV5ztg9kdRwA2Vc5Pw6q1eWjMVHol+UhqXV2l+RB/g8fUpBnnbLvA6jemkue
GZi3Ev96uS8YqD72AlbALW0byCwjaFsjIa/ysioOr69FCVQOg/OhypyaxDporYvF
PRG3y8jwyT5+J67+C4U54BXzoIbCbHq56v3kP7ZUojlAmsDjtbePbUbz0qjniivf
PIj7HGmGU/23pg0ux3i6c7zLl+9CyRzVQJ/xLuzrjdMwGpolNprvh+V1py5rBeA5
OAR5lDNxJVKSrjBGj6DTvLlGanJBg+HnfBbmAQ5YCGf3Annstt4nSalePVwb7E9d
/8Rp5oWbAgMBAAGjgbswgbgwHQYDVR0OBBYEFFYoILhI2nJJ3p6Ztbq3bQiCncbK
MHkGA1UdIwRyMHCAFFYoILhI2nJJ3p6Ztbq3bQiCncbKoVWkUzBRMQswCQYDVQQG
EwJFUzEPMA0GA1UECBMGTWFkcmlkMRcwFQYDVQQKEw5KYXp6dGVsIFMuQS5VLjEY
MBYGA1UEAxMPUHJvdmlzaW9uaW5nIENBggEAMA8GA1UdEwEB/wQFMAMBAf8wCwYD
VR0PBAQDAgEGMA0GCSqGSIb3DQEBBQUAA4ICAQB3/o2qhDWfFo90L4/5mKZcyI7q
edN8crdumOPWVyp1shNxJS8iuzAXf4Zi5CkPtthZtIwKHVnglNMEiDpq2nVF1kWr
QTW8DkT/bQ25IlWUJw0NUYqBmpFL740RpPbXJnWxZ9Msa/KraiDDViqC1LjiuN51
bRRTbIJEwwpy5AI8mfJEjRES6x2hmiOcltWecyo9LWFlQezqA2Sq1LC5c+xKjM8m
dGLBqepeP8Dfiyicpp0fD2o3jOi4HE4uZgdPBQeieSVOLqtLsuPK5TvLVKt1vriu
7uj2tRloRE6swsYidkCzfmSr8hLo2WGocJpbaXr5x3X/GfKzALx9EeeD4QIEjf0D
kBNMu4WeyNzz3Xpr5MP98R+JsTisSJDWvp3IirFCTf4JPY3R2ptzUTwdbJcHNEr+
rD+9DtpocR77k8SaD7pqtdXJeyOpIKhE+8nhskJtxLFSAaH7sW8nYp9ImQyKGbpn
nHXoXqYAYbX2wPWBY8KcLZTLHKduVHJkv+AFmL97YH7sNor/14Xm1mplEJ99DVG3
4qc0yAB+8y7rhBWqdB8IIRs9n4zUmOX0tuRl4G7WuoCfts3WgOx8DCEyYITjgbJk
SFcqNgIa2I0LQ+BLVplF9C8ij+Vx/nxX9JWhJO4dHEiVFsTNfBYPlsprG6GCGoC8
BCyEP/dRj+1cC6Cdnw==
-----END CERTIFICATE-----
